target datalayout = "e-m:e-p270:32:32-p271:32:32-p272:64:64-i64:64-i128:128-f80:128-n8:16:32:64-S128"
target triple = "x86_64-pc-linux-gnu"

%struct._address = type { i32, i32, ptr, ptr }
%struct._rpc_prog_info_value = type { ptr, i32, i32, ptr, ptr }
%struct._GArray = type { ptr, i32 }
%struct._packet_info = type { ptr, ptr, i32, i32, %struct.nstime_t, %struct.nstime_t, %struct.nstime_t, i8, ptr, ptr, ptr, ptr, %struct._address, %struct._address, %struct._address, %struct._address, %struct._address, %struct._address, i32, ptr, i8, [3 x i8], %struct.anon, i32, i32, i32, i32, ptr, i8, ptr, ptr, i16, i16, i32, i32, i16, i32, i32, ptr, ptr, ptr, i8, i8, i16, i16, i16, i32, i16, i16, ptr, ptr, ptr, ptr, ptr, i32, i32 }
%struct.nstime_t = type { i64, i32 }
%struct.anon = type { i8, [3 x i8] }
%struct._rpc_call_info_value = type { i32, i32, i32, i32, i32, i32, i32, i32, i32, i8, %struct.nstime_t, ptr }
%struct._stat_tap_table_ui = type { i32, ptr, ptr, ptr, ptr, ptr, ptr, ptr, ptr, i64, ptr, i64, ptr, ptr, i32 }
%struct._stat_tap_table_item_type = type { i32, %union.anon, %union.anon.0 }
%union.anon = type { ptr }
%union.anon.0 = type { ptr }
%struct._stat_data_t = type { ptr, ptr }
%struct._stat_tap_table = type { ptr, ptr, i32, i32, ptr }

@rpc_progs = global ptr null, align 8
@.str.29 = private unnamed_addr constant [8 x i8] c"Unknown\00", align 1

; Function Attrs: null_pointer_is_valid sspstrong uwtable
define ptr @rpc_prog_name(i32 noundef %0) #0 {
  %2 = alloca i32, align 4
  %3 = alloca ptr, align 8
  %4 = alloca ptr, align 8
  store i32 %0, ptr %2, align 4
  call void @llvm.lifetime.start.p0(i64 8, ptr %3) #18
  store ptr null, ptr %3, align 8
  call void @llvm.lifetime.start.p0(i64 8, ptr %4) #18
  %5 = load ptr, ptr @rpc_progs, align 8
  %6 = load i32, ptr %2, align 4
  %7 = zext i32 %6 to i64
  %8 = inttoptr i64 %7 to ptr
  %9 = call ptr @g_hash_table_lookup(ptr noundef %5, ptr noundef %8)
  store ptr %9, ptr %4, align 8
  %10 = icmp eq ptr %9, null
  br i1 %10, label %11, label %12

11:                                               ; preds = %1
  store ptr @.str.29, ptr %3, align 8
  br label %16

12:                                               ; preds = %1
  %13 = load ptr, ptr %4, align 8
  %14 = getelementptr inbounds nuw %struct._rpc_prog_info_value, ptr %13, i32 0, i32 3
  %15 = load ptr, ptr %14, align 8
  store ptr %15, ptr %3, align 8
  br label %16

16:                                               ; preds = %12, %11
  %17 = load ptr, ptr %3, align 8
  call void @llvm.lifetime.end.p0(i64 8, ptr %4) #18
  call void @llvm.lifetime.end.p0(i64 8, ptr %3) #18
  ret ptr %17
}

; Function Attrs: alwaysinline nounwind
define internal ptr @memset.inline(ptr %0, i32 %1, i64 %2) #13 {
  %4 = alloca ptr, align 8
  %5 = alloca i32, align 4
  %6 = alloca i64, align 8
  store ptr %0, ptr %4, align 8
  store i32 %1, ptr %5, align 4
  store i64 %2, ptr %6, align 8
  %7 = load ptr, ptr %4, align 8
  %8 = load i32, ptr %5, align 4
  %9 = load i64, ptr %6, align 8
  %10 = load ptr, ptr %4, align 8
  %11 = call i64 @llvm.objectsize.i64.p0(ptr %10, i1 false, i1 true, i1 true)
  %12 = call ptr @__memset_chk(ptr noundef %7, i32 noundef %8, i64 noundef %9, i64 noundef %11) #18
  ret ptr %12
}

; Function Attrs: null_pointer_is_valid sspstrong uwtable
define internal i32 @rpc_prog_stat_packet(ptr noundef %0, ptr noundef %1, ptr noundef %2, ptr noundef %3, i32 noundef %4) #0 {
  %6 = alloca i32, align 4
  %7 = alloca ptr, align 8
  %8 = alloca ptr, align 8
  %9 = alloca ptr, align 8
  %10 = alloca ptr, align 8
  %11 = alloca i32, align 4
  %12 = alloca ptr, align 8
  %13 = alloca ptr, align 8
  %14 = alloca i32, align 4
  %15 = alloca %struct.nstime_t, align 8
  %16 = alloca double, align 8
  %17 = alloca i32, align 4
  %18 = alloca i32, align 4
  %19 = alloca i8, align 1
  %20 = alloca ptr, align 8
  %21 = alloca ptr, align 8
  %22 = alloca ptr, align 8
  %23 = alloca ptr, align 8
  %24 = alloca i32, align 4
  %25 = alloca [7 x %struct._stat_tap_table_item_type], align 16
  store ptr %0, ptr %7, align 8
  store ptr %1, ptr %8, align 8
  store ptr %2, ptr %9, align 8
  store ptr %3, ptr %10, align 8
  store i32 %4, ptr %11, align 4
  call void @llvm.lifetime.start.p0(i64 8, ptr %12) #18
  %26 = load ptr, ptr %7, align 8
  store ptr %26, ptr %12, align 8
  call void @llvm.lifetime.start.p0(i64 8, ptr %13) #18
  %27 = load ptr, ptr %10, align 8
  store ptr %27, ptr %13, align 8
  call void @llvm.lifetime.start.p0(i64 4, ptr %14) #18
  store i32 7, ptr %14, align 4
  call void @llvm.lifetime.start.p0(i64 16, ptr %15) #18
  call void @llvm.lifetime.start.p0(i64 8, ptr %16) #18
  store double 0.000000e+00, ptr %16, align 8
  call void @llvm.lifetime.start.p0(i64 4, ptr %17) #18
  call void @llvm.lifetime.start.p0(i64 4, ptr %18) #18
  call void @llvm.lifetime.start.p0(i64 1, ptr %19) #18
  store i8 0, ptr %19, align 1
  call void @llvm.lifetime.start.p0(i64 8, ptr %20) #18
  call void @llvm.lifetime.start.p0(i64 8, ptr %21) #18
  %28 = load ptr, ptr %12, align 8
  %29 = getelementptr inbounds nuw %struct._stat_data_t, ptr %28, i32 0, i32 0
  %30 = load ptr, ptr %29, align 8
  %31 = getelementptr inbounds nuw %struct._stat_tap_table_ui, ptr %30, i32 0, i32 13
  %32 = load ptr, ptr %31, align 8
  %33 = getelementptr inbounds nuw %struct._GArray, ptr %32, i32 0, i32 0
  %34 = load ptr, ptr %33, align 8
  %35 = getelementptr ptr, ptr %34, i64 0
  %36 = load ptr, ptr %35, align 8
  store ptr %36, ptr %20, align 8
  store i32 0, ptr %18, align 4
  br label %37

37:                                               ; preds = %70, %5
  %38 = load i32, ptr %18, align 4
  %39 = load ptr, ptr %20, align 8
  %40 = getelementptr inbounds nuw %struct._stat_tap_table, ptr %39, i32 0, i32 3
  %41 = load i32, ptr %40, align 4
  %42 = icmp ult i32 %38, %41
  br i1 %42, label %43, label %73

43:                                               ; preds = %37
  call void @llvm.lifetime.start.p0(i64 8, ptr %22) #18
  call void @llvm.lifetime.start.p0(i64 8, ptr %23) #18
  %44 = load ptr, ptr %20, align 8
  %45 = load i32, ptr %18, align 4
  %46 = call ptr @stat_tap_get_field_data(ptr noundef %44, i32 noundef %45, i32 noundef 1)
  store ptr %46, ptr %22, align 8
  %47 = load ptr, ptr %20, align 8
  %48 = load i32, ptr %18, align 4
  %49 = call ptr @stat_tap_get_field_data(ptr noundef %47, i32 noundef %48, i32 noundef 2)
  store ptr %49, ptr %23, align 8
  %50 = load ptr, ptr %13, align 8
  %51 = getelementptr inbounds nuw %struct._rpc_call_info_value, ptr %50, i32 0, i32 2
  %52 = load i32, ptr %51, align 8
  %53 = load ptr, ptr %22, align 8
  %54 = getelementptr inbounds nuw %struct._stat_tap_table_item_type, ptr %53, i32 0, i32 1
  %55 = load i32, ptr %54, align 8
  %56 = icmp eq i32 %52, %55
  br i1 %56, label %57, label %66

57:                                               ; preds = %43
  %58 = load ptr, ptr %13, align 8
  %59 = getelementptr inbounds nuw %struct._rpc_call_info_value, ptr %58, i32 0, i32 3
  %60 = load i32, ptr %59, align 4
  %61 = load ptr, ptr %23, align 8
  %62 = getelementptr inbounds nuw %struct._stat_tap_table_item_type, ptr %61, i32 0, i32 1
  %63 = load i32, ptr %62, align 8
  %64 = icmp eq i32 %60, %63
  br i1 %64, label %65, label %66

65:                                               ; preds = %57
  store i8 1, ptr %19, align 1
  store i32 2, ptr %24, align 4
  br label %67

66:                                               ; preds = %57, %43
  store i32 0, ptr %24, align 4
  br label %67

67:                                               ; preds = %66, %65
  call void @llvm.lifetime.end.p0(i64 8, ptr %23) #18
  call void @llvm.lifetime.end.p0(i64 8, ptr %22) #18
  %68 = load i32, ptr %24, align 4
  switch i32 %68, label %202 [
    i32 0, label %69
    i32 2, label %73
  ]

69:                                               ; preds = %67
  br label %70

70:                                               ; preds = %69
  %71 = load i32, ptr %18, align 4
  %72 = add i32 %71, 1
  store i32 %72, ptr %18, align 4
  br label %37, !llvm.loop !12

73:                                               ; preds = %67, %37
  %74 = load i8, ptr %19, align 1, !range !6, !noundef !7
  %75 = trunc i8 %74 to i1
  br i1 %75, label %114, label %76

76:                                               ; preds = %73
  call void @llvm.lifetime.start.p0(i64 168, ptr %25) #18
  %77 = getelementptr inbounds [7 x %struct._stat_tap_table_item_type], ptr %25, i64 0, i64 0
  %78 = call ptr @memset.inline(ptr noundef %77, i32 noundef 0, i64 noundef 168) #18
  %79 = getelementptr [7 x %struct._stat_tap_table_item_type], ptr %25, i64 0, i64 0
  %80 = getelementptr inbounds nuw %struct._stat_tap_table_item_type, ptr %79, i32 0, i32 0
  store i32 3, ptr %80, align 16
  %81 = load ptr, ptr %13, align 8
  %82 = getelementptr inbounds nuw %struct._rpc_call_info_value, ptr %81, i32 0, i32 2
  %83 = load i32, ptr %82, align 8
  %84 = call ptr @rpc_prog_name(i32 noundef %83)
  %85 = call noalias ptr @g_strdup(ptr noundef %84)
  %86 = getelementptr [7 x %struct._stat_tap_table_item_type], ptr %25, i64 0, i64 0
  %87 = getelementptr inbounds nuw %struct._stat_tap_table_item_type, ptr %86, i32 0, i32 1
  store ptr %85, ptr %87, align 8
  %88 = getelementptr [7 x %struct._stat_tap_table_item_type], ptr %25, i64 0, i64 1
  %89 = getelementptr inbounds nuw %struct._stat_tap_table_item_type, ptr %88, i32 0, i32 0
  store i32 1, ptr %89, align 8
  %90 = load ptr, ptr %13, align 8
  %91 = getelementptr inbounds nuw %struct._rpc_call_info_value, ptr %90, i32 0, i32 2
  %92 = load i32, ptr %91, align 8
  %93 = getelementptr [7 x %struct._stat_tap_table_item_type], ptr %25, i64 0, i64 1
  %94 = getelementptr inbounds nuw %struct._stat_tap_table_item_type, ptr %93, i32 0, i32 1
  store i32 %92, ptr %94, align 8
  %95 = getelementptr [7 x %struct._stat_tap_table_item_type], ptr %25, i64 0, i64 2
  %96 = getelementptr inbounds nuw %struct._stat_tap_table_item_type, ptr %95, i32 0, i32 0
  store i32 1, ptr %96, align 16
  %97 = load ptr, ptr %13, align 8
  %98 = getelementptr inbounds nuw %struct._rpc_call_info_value, ptr %97, i32 0, i32 3
  %99 = load i32, ptr %98, align 4
  %100 = getelementptr [7 x %struct._stat_tap_table_item_type], ptr %25, i64 0, i64 2
  %101 = getelementptr inbounds nuw %struct._stat_tap_table_item_type, ptr %100, i32 0, i32 1
  store i32 %99, ptr %101, align 8
  %102 = getelementptr [7 x %struct._stat_tap_table_item_type], ptr %25, i64 0, i64 3
  %103 = getelementptr inbounds nuw %struct._stat_tap_table_item_type, ptr %102, i32 0, i32 0
  store i32 1, ptr %103, align 8
  %104 = getelementptr [7 x %struct._stat_tap_table_item_type], ptr %25, i64 0, i64 4
  %105 = getelementptr inbounds nuw %struct._stat_tap_table_item_type, ptr %104, i32 0, i32 0
  store i32 4, ptr %105, align 16
  %106 = getelementptr [7 x %struct._stat_tap_table_item_type], ptr %25, i64 0, i64 5
  %107 = getelementptr inbounds nuw %struct._stat_tap_table_item_type, ptr %106, i32 0, i32 0
  store i32 4, ptr %107, align 8
  %108 = getelementptr [7 x %struct._stat_tap_table_item_type], ptr %25, i64 0, i64 6
  %109 = getelementptr inbounds nuw %struct._stat_tap_table_item_type, ptr %108, i32 0, i32 0
  store i32 4, ptr %109, align 16
  %110 = load ptr, ptr %20, align 8
  %111 = load i32, ptr %18, align 4
  %112 = load i32, ptr %14, align 4
  %113 = getelementptr inbounds [7 x %struct._stat_tap_table_item_type], ptr %25, i64 0, i64 0
  call void @stat_tap_init_table_row(ptr noundef %110, i32 noundef %111, i32 noundef %112, ptr noundef %113)
  call void @llvm.lifetime.end.p0(i64 168, ptr %25) #18
  br label %114

114:                                              ; preds = %76, %73
  %115 = load ptr, ptr %13, align 8
  %116 = getelementptr inbounds nuw %struct._rpc_call_info_value, ptr %115, i32 0, i32 9
  %117 = load i8, ptr %116, align 4, !range !6, !noundef !7
  %118 = trunc i8 %117 to i1
  br i1 %118, label %119, label %120

119:                                              ; preds = %114
  store i32 0, ptr %6, align 4
  store i32 1, ptr %24, align 4
  br label %200

120:                                              ; preds = %114
  %121 = load ptr, ptr %20, align 8
  %122 = load i32, ptr %18, align 4
  %123 = call ptr @stat_tap_get_field_data(ptr noundef %121, i32 noundef %122, i32 noundef 3)
  store ptr %123, ptr %21, align 8
  %124 = load ptr, ptr %21, align 8
  %125 = getelementptr inbounds nuw %struct._stat_tap_table_item_type, ptr %124, i32 0, i32 1
  %126 = load i32, ptr %125, align 8
  %127 = add i32 %126, 1
  store i32 %127, ptr %125, align 8
  %128 = load ptr, ptr %21, align 8
  %129 = getelementptr inbounds nuw %struct._stat_tap_table_item_type, ptr %128, i32 0, i32 1
  %130 = load i32, ptr %129, align 8
  store i32 %130, ptr %17, align 4
  %131 = load ptr, ptr %20, align 8
  %132 = load i32, ptr %18, align 4
  %133 = load ptr, ptr %21, align 8
  call void @stat_tap_set_field_data(ptr noundef %131, i32 noundef %132, i32 noundef 3, ptr noundef %133)
  %134 = load ptr, ptr %8, align 8
  %135 = getelementptr inbounds nuw %struct._packet_info, ptr %134, i32 0, i32 4
  %136 = load ptr, ptr %13, align 8
  %137 = getelementptr inbounds nuw %struct._rpc_call_info_value, ptr %136, i32 0, i32 10
  call void @nstime_delta(ptr noundef %15, ptr noundef %135, ptr noundef %137)
  %138 = call double @nstime_to_sec(ptr noundef %15)
  store double %138, ptr %16, align 8
  %139 = load ptr, ptr %20, align 8
  %140 = load i32, ptr %18, align 4
  %141 = call ptr @stat_tap_get_field_data(ptr noundef %139, i32 noundef %140, i32 noundef 4)
  store ptr %141, ptr %21, align 8
  %142 = load ptr, ptr %21, align 8
  %143 = getelementptr inbounds nuw %struct._stat_tap_table_item_type, ptr %142, i32 0, i32 1
  %144 = load double, ptr %143, align 8
  %145 = fcmp oeq double %144, 0.000000e+00
  br i1 %145, label %152, label %146

146:                                              ; preds = %120
  %147 = load double, ptr %16, align 8
  %148 = load ptr, ptr %21, align 8
  %149 = getelementptr inbounds nuw %struct._stat_tap_table_item_type, ptr %148, i32 0, i32 1
  %150 = load double, ptr %149, align 8
  %151 = fcmp olt double %147, %150
  br i1 %151, label %152, label %159

152:                                              ; preds = %146, %120
  %153 = load double, ptr %16, align 8
  %154 = load ptr, ptr %21, align 8
  %155 = getelementptr inbounds nuw %struct._stat_tap_table_item_type, ptr %154, i32 0, i32 1
  store double %153, ptr %155, align 8
  %156 = load ptr, ptr %20, align 8
  %157 = load i32, ptr %18, align 4
  %158 = load ptr, ptr %21, align 8
  call void @stat_tap_set_field_data(ptr noundef %156, i32 noundef %157, i32 noundef 4, ptr noundef %158)
  br label %159

159:                                              ; preds = %152, %146
  %160 = load ptr, ptr %20, align 8
  %161 = load i32, ptr %18, align 4
  %162 = call ptr @stat_tap_get_field_data(ptr noundef %160, i32 noundef %161, i32 noundef 5)
  store ptr %162, ptr %21, align 8
  %163 = load ptr, ptr %21, align 8
  %164 = getelementptr inbounds nuw %struct._stat_tap_table_item_type, ptr %163, i32 0, i32 1
  %165 = load double, ptr %164, align 8
  %166 = fcmp oeq double %165, 0.000000e+00
  br i1 %166, label %173, label %167

167:                                              ; preds = %159
  %168 = load double, ptr %16, align 8
  %169 = load ptr, ptr %21, align 8
  %170 = getelementptr inbounds nuw %struct._stat_tap_table_item_type, ptr %169, i32 0, i32 1
  %171 = load double, ptr %170, align 8
  %172 = fcmp ogt double %168, %171
  br i1 %172, label %173, label %180

173:                                              ; preds = %167, %159
  %174 = load double, ptr %16, align 8
  %175 = load ptr, ptr %21, align 8
  %176 = getelementptr inbounds nuw %struct._stat_tap_table_item_type, ptr %175, i32 0, i32 1
  store double %174, ptr %176, align 8
  %177 = load ptr, ptr %20, align 8
  %178 = load i32, ptr %18, align 4
  %179 = load ptr, ptr %21, align 8
  call void @stat_tap_set_field_data(ptr noundef %177, i32 noundef %178, i32 noundef 5, ptr noundef %179)
  br label %180

180:                                              ; preds = %173, %167
  %181 = load ptr, ptr %20, align 8
  %182 = load i32, ptr %18, align 4
  %183 = call ptr @stat_tap_get_field_data(ptr noundef %181, i32 noundef %182, i32 noundef 6)
  store ptr %183, ptr %21, align 8
  %184 = load double, ptr %16, align 8
  %185 = load ptr, ptr %21, align 8
  %186 = getelementptr inbounds nuw %struct._stat_tap_table_item_type, ptr %185, i32 0, i32 2
  %187 = load double, ptr %186, align 8
  %188 = fadd double %187, %184
  store double %188, ptr %186, align 8
  %189 = load ptr, ptr %21, align 8
  %190 = getelementptr inbounds nuw %struct._stat_tap_table_item_type, ptr %189, i32 0, i32 2
  %191 = load double, ptr %190, align 8
  %192 = load i32, ptr %17, align 4
  %193 = uitofp i32 %192 to double
  %194 = fdiv double %191, %193
  %195 = load ptr, ptr %21, align 8
  %196 = getelementptr inbounds nuw %struct._stat_tap_table_item_type, ptr %195, i32 0, i32 1
  store double %194, ptr %196, align 8
  %197 = load ptr, ptr %20, align 8
  %198 = load i32, ptr %18, align 4
  %199 = load ptr, ptr %21, align 8
  call void @stat_tap_set_field_data(ptr noundef %197, i32 noundef %198, i32 noundef 6, ptr noundef %199)
  store i32 1, ptr %6, align 4
  store i32 1, ptr %24, align 4
  br label %200

200:                                              ; preds = %180, %119
  call void @llvm.lifetime.end.p0(i64 8, ptr %21) #18
  call void @llvm.lifetime.end.p0(i64 8, ptr %20) #18
  call void @llvm.lifetime.end.p0(i64 1, ptr %19) #18
  call void @llvm.lifetime.end.p0(i64 4, ptr %18) #18
  call void @llvm.lifetime.end.p0(i64 4, ptr %17) #18
  call void @llvm.lifetime.end.p0(i64 8, ptr %16) #18
  call void @llvm.lifetime.end.p0(i64 16, ptr %15) #18
  call void @llvm.lifetime.end.p0(i64 4, ptr %14) #18
  call void @llvm.lifetime.end.p0(i64 8, ptr %13) #18
  call void @llvm.lifetime.end.p0(i64 8, ptr %12) #18
  %201 = load i32, ptr %6, align 4
  ret i32 %201

202:                                              ; preds = %67
  unreachable
}