; Function Attrs: null_pointer_is_valid sspstrong uwtable
define internal range(i32 0, 2) i32 @rpc_prog_stat_packet(ptr noundef readonly captures(none) %0, ptr noundef %1, ptr readnone captures(none) %2, ptr noundef %3, i32 %4) #0 {
  %6 = alloca %struct.nstime_t, align 8
  %7 = alloca [7 x %struct._stat_tap_table_item_type], align 16
  call void @llvm.lifetime.start.p0(i64 16, ptr nonnull %6) #17
  %8 = load ptr, ptr %0, align 8
  %9 = getelementptr inbounds nuw i8, ptr %8, i64 104
  %10 = load ptr, ptr %9, align 8
  %11 = load ptr, ptr %10, align 8
  %12 = load ptr, ptr %11, align 8
  %13 = getelementptr inbounds nuw i8, ptr %12, i64 20
  %14 = load i32, ptr %13, align 4
  %.not = icmp eq i32 %14, 0
  %.phi.trans.insert = getelementptr inbounds nuw i8, ptr %3, i64 8
  br i1 %.not, label %.._crit_edge_crit_edge, label %.lr.ph

.._crit_edge_crit_edge:                           ; preds = %5
  %.pre = load i32, ptr %.phi.trans.insert, align 8
  br label %._crit_edge

.lr.ph:                                           ; preds = %5
  %15 = getelementptr inbounds nuw i8, ptr %3, i64 12
  br label %16

16:                                               ; preds = %.lr.ph, %28
  %.06376 = phi i32 [ 0, %.lr.ph ], [ %29, %28 ]
  %17 = tail call ptr @stat_tap_get_field_data(ptr noundef %12, i32 noundef %.06376, i32 noundef 1)
  %18 = tail call ptr @stat_tap_get_field_data(ptr noundef %12, i32 noundef %.06376, i32 noundef 2)
  %19 = load i32, ptr %.phi.trans.insert, align 8
  %20 = getelementptr inbounds nuw i8, ptr %17, i64 8
  %21 = load i32, ptr %20, align 8
  %22 = icmp eq i32 %19, %21
  br i1 %22, label %23, label %28

23:                                               ; preds = %16
  %24 = load i32, ptr %15, align 4
  %25 = getelementptr inbounds nuw i8, ptr %18, i64 8
  %26 = load i32, ptr %25, align 8
  %27 = icmp eq i32 %24, %26
  br i1 %27, label %.thread72, label %28

28:                                               ; preds = %16, %23
  %29 = add nuw i32 %.06376, 1
  %30 = load i32, ptr %13, align 4
  %31 = icmp ult i32 %29, %30
  br i1 %31, label %16, label %._crit_edge, !llvm.loop !12

._crit_edge:                                      ; preds = %28, %.._crit_edge_crit_edge
  %32 = phi i32 [ %.pre, %.._crit_edge_crit_edge ], [ %19, %28 ]
  %.063.lcssa = phi i32 [ 0, %.._crit_edge_crit_edge ], [ %29, %28 ]
  call void @llvm.lifetime.start.p0(i64 168, ptr nonnull %7) #17
  call void @llvm.memset.p0.i64(ptr noundef nonnull align 16 dereferenceable(168) %7, i8 noundef 0, i64 noundef 168, i1 noundef false) #17
  store i32 3, ptr %7, align 16
  %33 = getelementptr inbounds nuw i8, ptr %3, i64 8
  %34 = load ptr, ptr @rpc_progs, align 8
  %35 = zext i32 %32 to i64
  %36 = inttoptr i64 %35 to ptr
  %37 = tail call ptr @g_hash_table_lookup(ptr noundef %34, ptr noundef %36)
  %38 = icmp eq ptr %37, null
  br i1 %38, label %rpc_prog_name.exit, label %39

39:                                               ; preds = %._crit_edge
  %40 = getelementptr inbounds nuw i8, ptr %37, i64 16
  %41 = load ptr, ptr %40, align 8
  br label %rpc_prog_name.exit

rpc_prog_name.exit:                               ; preds = %._crit_edge, %39
  %.0.i = phi ptr [ %41, %39 ], [ @.str.29, %._crit_edge ]
  %42 = tail call noalias ptr @g_strdup(ptr noundef %.0.i)
  %43 = getelementptr inbounds nuw i8, ptr %7, i64 8
  store ptr %42, ptr %43, align 8
  %44 = getelementptr inbounds nuw i8, ptr %7, i64 24
  store i32 1, ptr %44, align 8
  %45 = load i32, ptr %33, align 8
  %46 = getelementptr inbounds nuw i8, ptr %7, i64 32
  store i32 %45, ptr %46, align 16
  %47 = getelementptr inbounds nuw i8, ptr %7, i64 48
  store i32 1, ptr %47, align 16
  %48 = getelementptr inbounds nuw i8, ptr %3, i64 12
  %49 = load i32, ptr %48, align 4
  %50 = getelementptr inbounds nuw i8, ptr %7, i64 56
  store i32 %49, ptr %50, align 8
  %51 = getelementptr inbounds nuw i8, ptr %7, i64 72
  store i32 1, ptr %51, align 8
  %52 = getelementptr inbounds nuw i8, ptr %7, i64 96
  store i32 4, ptr %52, align 16
  %53 = getelementptr inbounds nuw i8, ptr %7, i64 120
  store i32 4, ptr %53, align 8
  %54 = getelementptr inbounds nuw i8, ptr %7, i64 144
  store i32 4, ptr %54, align 16
  call void @stat_tap_init_table_row(ptr noundef %12, i32 noundef %.063.lcssa, i32 noundef 7, ptr noundef nonnull %7)
  call void @llvm.lifetime.end.p0(i64 168, ptr nonnull %7) #17
  br label %.thread72

.thread72:                                        ; preds = %23, %rpc_prog_name.exit
  %.06375 = phi i32 [ %.063.lcssa, %rpc_prog_name.exit ], [ %.06376, %23 ]
  %55 = getelementptr inbounds nuw i8, ptr %3, i64 36
  %56 = load i8, ptr %55, align 4, !range !6, !noundef !7
  %57 = trunc nuw i8 %56 to i1
  br i1 %57, label %87, label %58

58:                                               ; preds = %.thread72
  %59 = call ptr @stat_tap_get_field_data(ptr noundef %12, i32 noundef %.06375, i32 noundef 3)
  %60 = getelementptr inbounds nuw i8, ptr %59, i64 8
  %61 = load i32, ptr %60, align 8
  %62 = add i32 %61, 1
  store i32 %62, ptr %60, align 8
  call void @stat_tap_set_field_data(ptr noundef %12, i32 noundef %.06375, i32 noundef 3, ptr noundef %59)
  %63 = getelementptr inbounds nuw i8, ptr %1, i64 24
  %64 = getelementptr inbounds nuw i8, ptr %3, i64 40
  call void @nstime_delta(ptr noundef nonnull %6, ptr noundef nonnull %63, ptr noundef nonnull %64)
  %65 = call double @nstime_to_sec(ptr noundef nonnull %6)
  %66 = call ptr @stat_tap_get_field_data(ptr noundef %12, i32 noundef %.06375, i32 noundef 4)
  %67 = getelementptr inbounds nuw i8, ptr %66, i64 8
  %68 = load double, ptr %67, align 8
  %69 = fcmp oeq double %68, 0.000000e+00
  %70 = fcmp olt double %65, %68
  %or.cond = select i1 %69, i1 true, i1 %70
  br i1 %or.cond, label %71, label %72

71:                                               ; preds = %58
  store double %65, ptr %67, align 8
  call void @stat_tap_set_field_data(ptr noundef %12, i32 noundef %.06375, i32 noundef 4, ptr noundef %66)
  br label %72

72:                                               ; preds = %58, %71
  %73 = call ptr @stat_tap_get_field_data(ptr noundef %12, i32 noundef %.06375, i32 noundef 5)
  %74 = getelementptr inbounds nuw i8, ptr %73, i64 8
  %75 = load double, ptr %74, align 8
  %76 = fcmp oeq double %75, 0.000000e+00
  %77 = fcmp ogt double %65, %75
  %or.cond67 = select i1 %76, i1 true, i1 %77
  br i1 %or.cond67, label %78, label %79

78:                                               ; preds = %72
  store double %65, ptr %74, align 8
  call void @stat_tap_set_field_data(ptr noundef %12, i32 noundef %.06375, i32 noundef 5, ptr noundef %73)
  br label %79

79:                                               ; preds = %72, %78
  %80 = call ptr @stat_tap_get_field_data(ptr noundef %12, i32 noundef %.06375, i32 noundef 6)
  %81 = getelementptr inbounds nuw i8, ptr %80, i64 16
  %82 = load double, ptr %81, align 8
  %83 = fadd double %65, %82
  store double %83, ptr %81, align 8
  %84 = uitofp i32 %62 to double
  %85 = fdiv double %83, %84
  %86 = getelementptr inbounds nuw i8, ptr %80, i64 8
  store double %85, ptr %86, align 8
  call void @stat_tap_set_field_data(ptr noundef %12, i32 noundef %.06375, i32 noundef 6, ptr noundef %80)
  br label %87

87:                                               ; preds = %.thread72, %79
  %.062 = phi i32 [ 1, %79 ], [ 0, %.thread72 ]
  call void @llvm.lifetime.end.p0(i64 16, ptr nonnull %6) #17
  ret i32 %.062
}